target datalayout = "e-m:e-p270:32:32-p271:32:32-p272:64:64-i64:64-i128:128-f80:128-n8:16:32:64-S128"
target triple = "x86_64-pc-linux-gnu"

@Curl_cfree = external global ptr, align 8

; Function Attrs: nounwind uwtable
define hidden i32 @Curl_parse_login_details(ptr noundef %0, i64 noundef %1, ptr noundef %2, ptr noundef %3, ptr noundef %4) #0 {
  %6 = alloca i32, align 4
  %7 = alloca ptr, align 8
  %8 = alloca i64, align 8
  %9 = alloca ptr, align 8
  %10 = alloca ptr, align 8
  %11 = alloca ptr, align 8
  %12 = alloca ptr, align 8
  %13 = alloca ptr, align 8
  %14 = alloca ptr, align 8
  %15 = alloca ptr, align 8
  %16 = alloca i64, align 8
  %17 = alloca i64, align 8
  %18 = alloca i64, align 8
  %19 = alloca ptr, align 8
  %20 = alloca i32, align 4
  store ptr %0, ptr %7, align 8, !tbaa !11
  store i64 %1, ptr %8, align 8, !tbaa !182
  store ptr %2, ptr %9, align 8, !tbaa !240
  store ptr %3, ptr %10, align 8, !tbaa !240
  store ptr %4, ptr %11, align 8, !tbaa !240
  call void @llvm.lifetime.start.p0(i64 8, ptr %12) #8
  store ptr null, ptr %12, align 8, !tbaa !11
  call void @llvm.lifetime.start.p0(i64 8, ptr %13) #8
  store ptr null, ptr %13, align 8, !tbaa !11
  call void @llvm.lifetime.start.p0(i64 8, ptr %14) #8
  store ptr null, ptr %14, align 8, !tbaa !11
  call void @llvm.lifetime.start.p0(i64 8, ptr %15) #8
  store ptr null, ptr %15, align 8, !tbaa !11
  call void @llvm.lifetime.start.p0(i64 8, ptr %16) #8
  call void @llvm.lifetime.start.p0(i64 8, ptr %17) #8
  call void @llvm.lifetime.start.p0(i64 8, ptr %18) #8
  br label %21

21:                                               ; preds = %5
  br label %22

22:                                               ; preds = %21
  br label %23

23:                                               ; preds = %22
  br label %24

24:                                               ; preds = %23
  br label %25

25:                                               ; preds = %24
  br label %26

26:                                               ; preds = %25
  %27 = load ptr, ptr %7, align 8, !tbaa !11
  %28 = load i64, ptr %8, align 8, !tbaa !182
  %29 = call ptr @memchr(ptr noundef %27, i32 noundef 58, i64 noundef %28) #9
  store ptr %29, ptr %14, align 8, !tbaa !11
  %30 = load ptr, ptr %11, align 8, !tbaa !240
  %31 = icmp ne ptr %30, null
  br i1 %31, label %32, label %36

32:                                               ; preds = %26
  %33 = load ptr, ptr %7, align 8, !tbaa !11
  %34 = load i64, ptr %8, align 8, !tbaa !182
  %35 = call ptr @memchr(ptr noundef %33, i32 noundef 59, i64 noundef %34) #9
  store ptr %35, ptr %15, align 8, !tbaa !11
  br label %36

36:                                               ; preds = %32, %26
  %37 = load ptr, ptr %14, align 8, !tbaa !11
  %38 = icmp ne ptr %37, null
  br i1 %38, label %39, label %60

39:                                               ; preds = %36
  %40 = load ptr, ptr %15, align 8, !tbaa !11
  %41 = icmp ne ptr %40, null
  br i1 %41, label %42, label %52

42:                                               ; preds = %39
  %43 = load ptr, ptr %14, align 8, !tbaa !11
  %44 = load ptr, ptr %15, align 8, !tbaa !11
  %45 = icmp ugt ptr %43, %44
  br i1 %45, label %46, label %52

46:                                               ; preds = %42
  %47 = load ptr, ptr %15, align 8, !tbaa !11
  %48 = load ptr, ptr %7, align 8, !tbaa !11
  %49 = ptrtoint ptr %47 to i64
  %50 = ptrtoint ptr %48 to i64
  %51 = sub i64 %49, %50
  br label %58

52:                                               ; preds = %42, %39
  %53 = load ptr, ptr %14, align 8, !tbaa !11
  %54 = load ptr, ptr %7, align 8, !tbaa !11
  %55 = ptrtoint ptr %53 to i64
  %56 = ptrtoint ptr %54 to i64
  %57 = sub i64 %55, %56
  br label %58

58:                                               ; preds = %52, %46
  %59 = phi i64 [ %51, %46 ], [ %57, %52 ]
  br label %73

60:                                               ; preds = %36
  %61 = load ptr, ptr %15, align 8, !tbaa !11
  %62 = icmp ne ptr %61, null
  br i1 %62, label %63, label %69

63:                                               ; preds = %60
  %64 = load ptr, ptr %15, align 8, !tbaa !11
  %65 = load ptr, ptr %7, align 8, !tbaa !11
  %66 = ptrtoint ptr %64 to i64
  %67 = ptrtoint ptr %65 to i64
  %68 = sub i64 %66, %67
  br label %71

69:                                               ; preds = %60
  %70 = load i64, ptr %8, align 8, !tbaa !182
  br label %71

71:                                               ; preds = %69, %63
  %72 = phi i64 [ %68, %63 ], [ %70, %69 ]
  br label %73

73:                                               ; preds = %71, %58
  %74 = phi i64 [ %59, %58 ], [ %72, %71 ]
  store i64 %74, ptr %16, align 8, !tbaa !182
  %75 = load ptr, ptr %14, align 8, !tbaa !11
  %76 = icmp ne ptr %75, null
  br i1 %76, label %77, label %101

77:                                               ; preds = %73
  %78 = load ptr, ptr %15, align 8, !tbaa !11
  %79 = icmp ne ptr %78, null
  br i1 %79, label %80, label %90

80:                                               ; preds = %77
  %81 = load ptr, ptr %15, align 8, !tbaa !11
  %82 = load ptr, ptr %14, align 8, !tbaa !11
  %83 = icmp ugt ptr %81, %82
  br i1 %83, label %84, label %90

84:                                               ; preds = %80
  %85 = load ptr, ptr %15, align 8, !tbaa !11
  %86 = load ptr, ptr %14, align 8, !tbaa !11
  %87 = ptrtoint ptr %85 to i64
  %88 = ptrtoint ptr %86 to i64
  %89 = sub i64 %87, %88
  br label %98

90:                                               ; preds = %80, %77
  %91 = load ptr, ptr %7, align 8, !tbaa !11
  %92 = load i64, ptr %8, align 8, !tbaa !182
  %93 = getelementptr inbounds nuw i8, ptr %91, i64 %92
  %94 = load ptr, ptr %14, align 8, !tbaa !11
  %95 = ptrtoint ptr %93 to i64
  %96 = ptrtoint ptr %94 to i64
  %97 = sub i64 %95, %96
  br label %98

98:                                               ; preds = %90, %84
  %99 = phi i64 [ %89, %84 ], [ %97, %90 ]
  %100 = sub i64 %99, 1
  br label %102

101:                                              ; preds = %73
  br label %102

102:                                              ; preds = %101, %98
  %103 = phi i64 [ %100, %98 ], [ 0, %101 ]
  store i64 %103, ptr %17, align 8, !tbaa !182
  %104 = load ptr, ptr %15, align 8, !tbaa !11
  %105 = icmp ne ptr %104, null
  br i1 %105, label %106, label %130

106:                                              ; preds = %102
  %107 = load ptr, ptr %14, align 8, !tbaa !11
  %108 = icmp ne ptr %107, null
  br i1 %108, label %109, label %119

109:                                              ; preds = %106
  %110 = load ptr, ptr %14, align 8, !tbaa !11
  %111 = load ptr, ptr %15, align 8, !tbaa !11
  %112 = icmp ugt ptr %110, %111
  br i1 %112, label %113, label %119

113:                                              ; preds = %109
  %114 = load ptr, ptr %14, align 8, !tbaa !11
  %115 = load ptr, ptr %15, align 8, !tbaa !11
  %116 = ptrtoint ptr %114 to i64
  %117 = ptrtoint ptr %115 to i64
  %118 = sub i64 %116, %117
  br label %127

119:                                              ; preds = %109, %106
  %120 = load ptr, ptr %7, align 8, !tbaa !11
  %121 = load i64, ptr %8, align 8, !tbaa !182
  %122 = getelementptr inbounds nuw i8, ptr %120, i64 %121
  %123 = load ptr, ptr %15, align 8, !tbaa !11
  %124 = ptrtoint ptr %122 to i64
  %125 = ptrtoint ptr %123 to i64
  %126 = sub i64 %124, %125
  br label %127

127:                                              ; preds = %119, %113
  %128 = phi i64 [ %118, %113 ], [ %126, %119 ]
  %129 = sub i64 %128, 1
  br label %131

130:                                              ; preds = %102
  br label %131

131:                                              ; preds = %130, %127
  %132 = phi i64 [ %129, %127 ], [ 0, %130 ]
  store i64 %132, ptr %18, align 8, !tbaa !182
  %133 = load ptr, ptr %7, align 8, !tbaa !11
  %134 = load i64, ptr %16, align 8, !tbaa !182
  %135 = call ptr @Curl_memdup0(ptr noundef %133, i64 noundef %134)
  store ptr %135, ptr %12, align 8, !tbaa !11
  %136 = load ptr, ptr %12, align 8, !tbaa !11
  %137 = icmp ne ptr %136, null
  br i1 %137, label %139, label %138

138:                                              ; preds = %131
  br label %177

139:                                              ; preds = %131
  %140 = load ptr, ptr %14, align 8, !tbaa !11
  %141 = icmp ne ptr %140, null
  br i1 %141, label %142, label %151

142:                                              ; preds = %139
  %143 = load ptr, ptr %14, align 8, !tbaa !11
  %144 = getelementptr inbounds i8, ptr %143, i64 1
  %145 = load i64, ptr %17, align 8, !tbaa !182
  %146 = call ptr @Curl_memdup0(ptr noundef %144, i64 noundef %145)
  store ptr %146, ptr %13, align 8, !tbaa !11
  %147 = load ptr, ptr %13, align 8, !tbaa !11
  %148 = icmp ne ptr %147, null
  br i1 %148, label %150, label %149

149:                                              ; preds = %142
  br label %177

150:                                              ; preds = %142
  br label %151

151:                                              ; preds = %150, %139
  %152 = load ptr, ptr %11, align 8, !tbaa !240
  %153 = icmp ne ptr %152, null
  br i1 %153, label %154, label %172

154:                                              ; preds = %151
  call void @llvm.lifetime.start.p0(i64 8, ptr %19) #8
  store ptr null, ptr %19, align 8, !tbaa !11
  %155 = load i64, ptr %18, align 8, !tbaa !182
  %156 = icmp ne i64 %155, 0
  br i1 %156, label %157, label %166

157:                                              ; preds = %154
  %158 = load ptr, ptr %15, align 8, !tbaa !11
  %159 = getelementptr inbounds i8, ptr %158, i64 1
  %160 = load i64, ptr %18, align 8, !tbaa !182
  %161 = call ptr @Curl_memdup0(ptr noundef %159, i64 noundef %160)
  store ptr %161, ptr %19, align 8, !tbaa !11
  %162 = load ptr, ptr %19, align 8, !tbaa !11
  %163 = icmp ne ptr %162, null
  br i1 %163, label %165, label %164

164:                                              ; preds = %157
  store i32 6, ptr %20, align 4
  br label %169

165:                                              ; preds = %157
  br label %166

166:                                              ; preds = %165, %154
  %167 = load ptr, ptr %19, align 8, !tbaa !11
  %168 = load ptr, ptr %11, align 8, !tbaa !240
  store ptr %167, ptr %168, align 8, !tbaa !11
  store i32 0, ptr %20, align 4
  br label %169

169:                                              ; preds = %164, %166
  call void @llvm.lifetime.end.p0(i64 8, ptr %19) #8
  %170 = load i32, ptr %20, align 4
  switch i32 %170, label %182 [
    i32 0, label %171
    i32 6, label %177
  ]

171:                                              ; preds = %169
  br label %172

172:                                              ; preds = %171, %151
  %173 = load ptr, ptr %12, align 8, !tbaa !11
  %174 = load ptr, ptr %9, align 8, !tbaa !240
  store ptr %173, ptr %174, align 8, !tbaa !11
  %175 = load ptr, ptr %13, align 8, !tbaa !11
  %176 = load ptr, ptr %10, align 8, !tbaa !240
  store ptr %175, ptr %176, align 8, !tbaa !11
  store i32 0, ptr %6, align 4
  store i32 1, ptr %20, align 4
  br label %182

177:                                              ; preds = %169, %149, %138
  %178 = load ptr, ptr @Curl_cfree, align 8, !tbaa !10
  %179 = load ptr, ptr %12, align 8, !tbaa !11
  call void %178(ptr noundef %179)
  %180 = load ptr, ptr @Curl_cfree, align 8, !tbaa !10
  %181 = load ptr, ptr %13, align 8, !tbaa !11
  call void %180(ptr noundef %181)
  store i32 27, ptr %6, align 4
  store i32 1, ptr %20, align 4
  br label %182

182:                                              ; preds = %177, %172, %169
  call void @llvm.lifetime.end.p0(i64 8, ptr %18) #8
  call void @llvm.lifetime.end.p0(i64 8, ptr %17) #8
  call void @llvm.lifetime.end.p0(i64 8, ptr %16) #8
  call void @llvm.lifetime.end.p0(i64 8, ptr %15) #8
  call void @llvm.lifetime.end.p0(i64 8, ptr %14) #8
  call void @llvm.lifetime.end.p0(i64 8, ptr %13) #8
  call void @llvm.lifetime.end.p0(i64 8, ptr %12) #8
  %183 = load i32, ptr %6, align 4
  ret i32 %183
}